; ModuleID = '21/702.c'
source_filename = "21/702.c"
target datalayout = "e-m:e-p270:32:32-p271:32:32-p272:64:64-i64:64-f80:128-n8:16:32:64-S128"
target triple = "x86_64-pc-linux-gnu"

@.str = private unnamed_addr constant [3 x i8] c"%d\00", align 1
@.str.1 = private unnamed_addr constant [6 x i8] c"%d,%d\00", align 1

; Function Attrs: noinline nounwind uwtable
define dso_local i32 @main() #0 {
  %1 = alloca i32, align 4
  %2 = alloca i32, align 4
  %3 = alloca i32, align 4
  %4 = alloca [300 x i32], align 16
  %5 = alloca i32, align 4
  %6 = alloca double, align 8
  %7 = alloca double, align 8
  %8 = alloca double, align 8
  store i32 0, i32* %1, align 4
  store i32 0, i32* %5, align 4
  store double 0.000000e+00, double* %6, align 8
  store double 0.000000e+00, double* %7, align 8
  %9 = call i32 (i8*, ...) @__isoc99_scanf(i8* getelementptr inbounds ([3 x i8], [3 x i8]* @.str, i64 0, i64 0), i32* %2)
  store i32 0, i32* %3, align 4
  br label %10

10:                                               ; preds = %26, %0
  %11 = load i32, i32* %3, align 4
  %12 = load i32, i32* %2, align 4
  %13 = icmp slt i32 %11, %12
  br i1 %13, label %14, label %29

14:                                               ; preds = %10
  %15 = load i32, i32* %3, align 4
  %16 = sext i32 %15 to i64
  %17 = getelementptr inbounds [300 x i32], [300 x i32]* %4, i64 0, i64 %16
  %18 = call i32 (i8*, ...) @__isoc99_scanf(i8* getelementptr inbounds ([3 x i8], [3 x i8]* @.str, i64 0, i64 0), i32* %17)
  %19 = load i32, i32* %3, align 4
  %20 = sext i32 %19 to i64
  %21 = getelementptr inbounds [300 x i32], [300 x i32]* %4, i64 0, i64 %20
  %22 = load i32, i32* %21, align 4
  %23 = sitofp i32 %22 to double
  %24 = load double, double* %6, align 8
  %25 = fadd double %24, %23
  store double %25, double* %6, align 8
  br label %26

26:                                               ; preds = %14
  %27 = load i32, i32* %3, align 4
  %28 = add nsw i32 %27, 1
  store i32 %28, i32* %3, align 4
  br label %10

29:                                               ; preds = %10
  %30 = load i32, i32* %2, align 4
  %31 = sitofp i32 %30 to double
  %32 = load double, double* %6, align 8
  %33 = fdiv double %32, %31
  store double %33, double* %6, align 8
  store i32 0, i32* %3, align 4
  br label %34

34:                                               ; preds = %64, %29
  %35 = load i32, i32* %3, align 4
  %36 = load i32, i32* %2, align 4
  %37 = icmp slt i32 %35, %36
  br i1 %37, label %38, label %67

38:                                               ; preds = %34
  %39 = load i32, i32* %3, align 4
  %40 = sext i32 %39 to i64
  %41 = getelementptr inbounds [300 x i32], [300 x i32]* %4, i64 0, i64 %40
  %42 = load i32, i32* %41, align 4
  %43 = sitofp i32 %42 to double
  %44 = load double, double* %6, align 8
  %45 = fsub double %43, %44
  store double %45, double* %8, align 8
  %46 = load double, double* %8, align 8
  %47 = call double @llvm.fabs.f64(double %46)
  %48 = load double, double* %7, align 8
  %49 = call double @llvm.fabs.f64(double %48)
  %50 = fcmp ogt double %47, %49
  br i1 %50, label %51, label %53

51:                                               ; preds = %38
  %52 = load double, double* %8, align 8
  store double %52, double* %7, align 8
  store i32 0, i32* %5, align 4
  br label %63

53:                                               ; preds = %38
  %54 = load double, double* %8, align 8
  %55 = call double @llvm.fabs.f64(double %54)
  %56 = load double, double* %7, align 8
  %57 = call double @llvm.fabs.f64(double %56)
  %58 = fcmp oeq double %55, %57
  br i1 %58, label %59, label %62

59:                                               ; preds = %53
  %60 = load i32, i32* %5, align 4
  %61 = add nsw i32 %60, 1
  store i32 %61, i32* %5, align 4
  br label %62

62:                                               ; preds = %59, %53
  br label %63

63:                                               ; preds = %62, %51
  br label %64

64:                                               ; preds = %63
  %65 = load i32, i32* %3, align 4
  %66 = add nsw i32 %65, 1
  store i32 %66, i32* %3, align 4
  br label %34

67:                                               ; preds = %34
  %68 = load i32, i32* %5, align 4
  %69 = icmp eq i32 %68, 0
  br i1 %69, label %70, label %76

70:                                               ; preds = %67
  %71 = load double, double* %7, align 8
  %72 = load double, double* %6, align 8
  %73 = fadd double %71, %72
  %74 = fptosi double %73 to i32
  %75 = call i32 (i8*, ...) @printf(i8* getelementptr inbounds ([3 x i8], [3 x i8]* @.str, i64 0, i64 0), i32 %74)
  br label %88

76:                                               ; preds = %67
  %77 = load double, double* %6, align 8
  %78 = load double, double* %7, align 8
  %79 = call double @llvm.fabs.f64(double %78)
  %80 = fsub double %77, %79
  %81 = fptosi double %80 to i32
  %82 = load double, double* %6, align 8
  %83 = load double, double* %7, align 8
  %84 = call double @llvm.fabs.f64(double %83)
  %85 = fadd double %82, %84
  %86 = fptosi double %85 to i32
  %87 = call i32 (i8*, ...) @printf(i8* getelementptr inbounds ([6 x i8], [6 x i8]* @.str.1, i64 0, i64 0), i32 %81, i32 %86)
  br label %88

88:                                               ; preds = %76, %70
  %89 = load i32, i32* %1, align 4
  ret i32 %89
}

declare dso_local i32 @__isoc99_scanf(i8*, ...) #1

; Function Attrs: nounwind readnone speculatable willreturn
declare double @llvm.fabs.f64(double) #2

declare dso_local i32 @printf(i8*, ...) #1


!llvm.module.flags = !{!0}
!llvm.ident = !{!1}

!0 = !{i32 1, !"wchar_size", i32 4}
!1 = !{!"clang version 10.0.0-4ubuntu1 "}
